target datalayout = "e-m:e-p270:32:32-p271:32:32-p272:64:64-i64:64-i128:128-f80:128-n8:16:32:64-S128"
target triple = "x86_64-pc-linux-gnu"

%struct.AVFilterContext = type { ptr, ptr, ptr, ptr, ptr, i32, ptr, ptr, i32, ptr, ptr, i32, i32, ptr, ptr, ptr, ptr, i32, ptr, i32, i32 }
%struct.AResampleContext = type { ptr, i32, double, ptr, i64, i32, i32 }
%struct.AVChannelLayout = type { i32, i32, %union.anon.1, ptr }
%union.anon.1 = type { i64 }
%struct.AVFilterFormatsConfig = type { ptr, ptr, ptr, ptr, ptr }
%struct.AVRational = type { i32, i32 }
%struct.AVFilterLink = type { ptr, ptr, ptr, ptr, i32, i32, i32, i32, %struct.AVRational, i32, i32, i32, %struct.AVChannelLayout, %struct.AVRational, ptr, i32, %struct.AVFilterFormatsConfig, %struct.AVFilterFormatsConfig }
%struct.AVFrame = type { [8 x ptr], [8 x i32], ptr, i32, i32, i32, i32, i32, %struct.AVRational, i64, i64, %struct.AVRational, i32, ptr, i32, i32, [8 x ptr], ptr, i32, ptr, i32, i32, i32, i32, i32, i32, i32, i64, ptr, i32, ptr, ptr, i64, i64, i64, i64, ptr, %struct.AVChannelLayout, i64 }

; Function Attrs: nounwind uwtable
define internal i32 @flush_frame(ptr noundef %0, i32 noundef %1, ptr noundef %2) #1 {
  %4 = alloca i32, align 4
  %5 = alloca ptr, align 8
  %6 = alloca i32, align 4
  %7 = alloca ptr, align 8
  %8 = alloca ptr, align 8
  %9 = alloca ptr, align 8
  %10 = alloca ptr, align 8
  %11 = alloca ptr, align 8
  %12 = alloca i32, align 4
  %13 = alloca i64, align 8
  %14 = alloca i32, align 4
  store ptr %0, ptr %5, align 8, !tbaa !45
  store i32 %1, ptr %6, align 4, !tbaa !37
  store ptr %2, ptr %7, align 8, !tbaa !96
  call void @llvm.lifetime.start.p0(i64 8, ptr %8) #10
  %15 = load ptr, ptr %5, align 8, !tbaa !45
  %16 = getelementptr inbounds nuw %struct.AVFilterLink, ptr %15, i32 0, i32 0
  %17 = load ptr, ptr %16, align 8, !tbaa !51
  store ptr %17, ptr %8, align 8, !tbaa !4
  call void @llvm.lifetime.start.p0(i64 8, ptr %9) #10
  %18 = load ptr, ptr %8, align 8, !tbaa !4
  %19 = getelementptr inbounds nuw %struct.AVFilterContext, ptr %18, i32 0, i32 9
  %20 = load ptr, ptr %19, align 8, !tbaa !9
  store ptr %20, ptr %9, align 8, !tbaa !22
  call void @llvm.lifetime.start.p0(i64 8, ptr %10) #10
  %21 = load ptr, ptr %5, align 8, !tbaa !45
  %22 = getelementptr inbounds nuw %struct.AVFilterLink, ptr %21, i32 0, i32 0
  %23 = load ptr, ptr %22, align 8, !tbaa !51
  %24 = getelementptr inbounds nuw %struct.AVFilterContext, ptr %23, i32 0, i32 4
  %25 = load ptr, ptr %24, align 8, !tbaa !44
  %26 = getelementptr inbounds ptr, ptr %25, i64 0
  %27 = load ptr, ptr %26, align 8, !tbaa !45
  store ptr %27, ptr %10, align 8, !tbaa !45
  call void @llvm.lifetime.start.p0(i64 8, ptr %11) #10
  call void @llvm.lifetime.start.p0(i64 4, ptr %12) #10
  store i32 4096, ptr %12, align 4, !tbaa !37
  call void @llvm.lifetime.start.p0(i64 8, ptr %13) #10
  %28 = load ptr, ptr %5, align 8, !tbaa !45
  %29 = load i32, ptr %12, align 4, !tbaa !37
  %30 = call ptr @ff_get_audio_buffer(ptr noundef %28, i32 noundef %29)
  store ptr %30, ptr %11, align 8, !tbaa !49
  %31 = load ptr, ptr %11, align 8, !tbaa !49
  %32 = load ptr, ptr %7, align 8, !tbaa !96
  store ptr %31, ptr %32, align 8, !tbaa !49
  %33 = load ptr, ptr %11, align 8, !tbaa !49
  %34 = icmp ne ptr %33, null
  br i1 %34, label %36, label %35

35:                                               ; preds = %3
  store i32 -12, ptr %4, align 4
  store i32 1, ptr %14, align 4
  br label %105

36:                                               ; preds = %3
  %37 = load ptr, ptr %9, align 8, !tbaa !22
  %38 = getelementptr inbounds nuw %struct.AResampleContext, ptr %37, i32 0, i32 3
  %39 = load ptr, ptr %38, align 8, !tbaa !29
  %40 = call i64 @swr_next_pts(ptr noundef %39, i64 noundef -9223372036854775808)
  store i64 %40, ptr %13, align 8, !tbaa !40
  %41 = load i64, ptr %13, align 8, !tbaa !40
  %42 = icmp sge i64 %41, 0
  br i1 %42, label %43, label %51

43:                                               ; preds = %36
  %44 = load i64, ptr %13, align 8, !tbaa !40
  %45 = load ptr, ptr %10, align 8, !tbaa !45
  %46 = getelementptr inbounds nuw %struct.AVFilterLink, ptr %45, i32 0, i32 11
  %47 = load i32, ptr %46, align 8, !tbaa !58
  %48 = ashr i32 %47, 1
  %49 = sext i32 %48 to i64
  %50 = add nsw i64 %44, %49
  br label %59

51:                                               ; preds = %36
  %52 = load i64, ptr %13, align 8, !tbaa !40
  %53 = load ptr, ptr %10, align 8, !tbaa !45
  %54 = getelementptr inbounds nuw %struct.AVFilterLink, ptr %53, i32 0, i32 11
  %55 = load i32, ptr %54, align 8, !tbaa !58
  %56 = ashr i32 %55, 1
  %57 = sext i32 %56 to i64
  %58 = sub nsw i64 %52, %57
  br label %59

59:                                               ; preds = %51, %43
  %60 = phi i64 [ %50, %43 ], [ %58, %51 ]
  %61 = load ptr, ptr %10, align 8, !tbaa !45
  %62 = getelementptr inbounds nuw %struct.AVFilterLink, ptr %61, i32 0, i32 11
  %63 = load i32, ptr %62, align 8, !tbaa !58
  %64 = sext i32 %63 to i64
  %65 = sdiv i64 %60, %64
  store i64 %65, ptr %13, align 8, !tbaa !40
  %66 = load ptr, ptr %9, align 8, !tbaa !22
  %67 = getelementptr inbounds nuw %struct.AResampleContext, ptr %66, i32 0, i32 3
  %68 = load ptr, ptr %67, align 8, !tbaa !29
  %69 = load ptr, ptr %11, align 8, !tbaa !49
  %70 = getelementptr inbounds nuw %struct.AVFrame, ptr %69, i32 0, i32 2
  %71 = load ptr, ptr %70, align 8, !tbaa !94
  %72 = load i32, ptr %12, align 4, !tbaa !37
  %73 = load i32, ptr %6, align 4, !tbaa !37
  %74 = icmp ne i32 %73, 0
  br i1 %74, label %75, label %76

75:                                               ; preds = %59
  br label %80

76:                                               ; preds = %59
  %77 = load ptr, ptr %11, align 8, !tbaa !49
  %78 = getelementptr inbounds nuw %struct.AVFrame, ptr %77, i32 0, i32 2
  %79 = load ptr, ptr %78, align 8, !tbaa !94
  br label %80

80:                                               ; preds = %76, %75
  %81 = phi ptr [ null, %75 ], [ %79, %76 ]
  %82 = call i32 @swr_convert(ptr noundef %68, ptr noundef %71, i32 noundef %72, ptr noundef %81, i32 noundef 0)
  store i32 %82, ptr %12, align 4, !tbaa !37
  %83 = load i32, ptr %12, align 4, !tbaa !37
  %84 = icmp sle i32 %83, 0
  br i1 %84, label %85, label %93

85:                                               ; preds = %80
  call void @av_frame_free(ptr noundef %11)
  %86 = load i32, ptr %12, align 4, !tbaa !37
  %87 = icmp eq i32 %86, 0
  br i1 %87, label %88, label %89

88:                                               ; preds = %85
  br label %91

89:                                               ; preds = %85
  %90 = load i32, ptr %12, align 4, !tbaa !37
  br label %91

91:                                               ; preds = %89, %88
  %92 = phi i32 [ -541478725, %88 ], [ %90, %89 ]
  store i32 %92, ptr %4, align 4
  store i32 1, ptr %14, align 4
  br label %105

93:                                               ; preds = %80
  %94 = load ptr, ptr %5, align 8, !tbaa !45
  %95 = getelementptr inbounds nuw %struct.AVFilterLink, ptr %94, i32 0, i32 11
  %96 = load i32, ptr %95, align 8, !tbaa !58
  %97 = load ptr, ptr %11, align 8, !tbaa !49
  %98 = getelementptr inbounds nuw %struct.AVFrame, ptr %97, i32 0, i32 15
  store i32 %96, ptr %98, align 4, !tbaa !90
  %99 = load i32, ptr %12, align 4, !tbaa !37
  %100 = load ptr, ptr %11, align 8, !tbaa !49
  %101 = getelementptr inbounds nuw %struct.AVFrame, ptr %100, i32 0, i32 5
  store i32 %99, ptr %101, align 8, !tbaa !85
  %102 = load i64, ptr %13, align 8, !tbaa !40
  %103 = load ptr, ptr %11, align 8, !tbaa !49
  %104 = getelementptr inbounds nuw %struct.AVFrame, ptr %103, i32 0, i32 9
  store i64 %102, ptr %104, align 8, !tbaa !91
  store i32 0, ptr %4, align 4
  store i32 1, ptr %14, align 4
  br label %105

105:                                              ; preds = %93, %91, %35
  call void @llvm.lifetime.end.p0(i64 8, ptr %13) #10
  call void @llvm.lifetime.end.p0(i64 4, ptr %12) #10
  call void @llvm.lifetime.end.p0(i64 8, ptr %11) #10
  call void @llvm.lifetime.end.p0(i64 8, ptr %10) #10
  call void @llvm.lifetime.end.p0(i64 8, ptr %9) #10
  call void @llvm.lifetime.end.p0(i64 8, ptr %8) #10
  %106 = load i32, ptr %4, align 4
  ret i32 %106
}