; Function Attrs: nounwind uwtable
define internal fastcc range(i32 -2147483648, 1) i32 @flush_frame(ptr noundef %0, i32 noundef range(i32 0, 2) %1, ptr noundef nonnull writeonly captures(none) initializes((0, 8)) %2) unnamed_addr #1 {
  %4 = alloca ptr, align 8
  %5 = load ptr, ptr %0, align 8, !tbaa !65
  %6 = getelementptr inbounds nuw i8, ptr %5, i64 72
  %7 = load ptr, ptr %6, align 8, !tbaa !4
  %8 = getelementptr inbounds nuw i8, ptr %5, i64 32
  %9 = load ptr, ptr %8, align 8, !tbaa !34
  %10 = load ptr, ptr %9, align 8, !tbaa !35
  call void @llvm.lifetime.start.p0(i64 8, ptr nonnull %4) #11
  %11 = tail call ptr @ff_get_audio_buffer(ptr noundef nonnull %0, i32 noundef 4096) #11
  store ptr %11, ptr %4, align 8, !tbaa !39
  store ptr %11, ptr %2, align 8, !tbaa !39
  %.not = icmp eq ptr %11, null
  br i1 %.not, label %39, label %12

12:                                               ; preds = %3
  %13 = getelementptr inbounds nuw i8, ptr %7, i64 24
  %14 = load ptr, ptr %13, align 8, !tbaa !25
  %15 = tail call i64 @swr_next_pts(ptr noundef %14, i64 noundef -9223372036854775808) #11
  %16 = getelementptr inbounds nuw i8, ptr %10, i64 64
  %17 = load i32, ptr %16, align 8, !tbaa !56
  %18 = load ptr, ptr %13, align 8, !tbaa !25
  %19 = getelementptr inbounds nuw i8, ptr %11, i64 96
  %20 = load ptr, ptr %19, align 8, !tbaa !63
  %.not25 = icmp eq i32 %1, 0
  %spec.select = select i1 %.not25, ptr %20, ptr null
  %21 = tail call i32 @swr_convert(ptr noundef %18, ptr noundef %20, i32 noundef 4096, ptr noundef %spec.select, i32 noundef 0) #11
  %22 = icmp slt i32 %21, 1
  br i1 %22, label %23, label %26

23:                                               ; preds = %12
  call void @av_frame_free(ptr noundef nonnull %4) #11
  %24 = icmp eq i32 %21, 0
  %25 = select i1 %24, i32 -541478725, i32 %21
  br label %39

26:                                               ; preds = %12
  %27 = ashr i32 %17, 1
  %28 = sext i32 %27 to i64
  %29 = icmp slt i64 %15, 0
  %30 = sub nsw i64 0, %28
  %.p = select i1 %29, i64 %30, i64 %28
  %31 = add i64 %15, %.p
  %32 = sext i32 %17 to i64
  %33 = sdiv i64 %31, %32
  %34 = getelementptr inbounds nuw i8, ptr %0, i64 64
  %35 = load i32, ptr %34, align 8, !tbaa !56
  %36 = getelementptr inbounds nuw i8, ptr %11, i64 180
  store i32 %35, ptr %36, align 4, !tbaa !59
  %37 = getelementptr inbounds nuw i8, ptr %11, i64 112
  store i32 %21, ptr %37, align 8, !tbaa !50
  %38 = getelementptr inbounds nuw i8, ptr %11, i64 136
  store i64 %33, ptr %38, align 8, !tbaa !60
  br label %39

39:                                               ; preds = %3, %26, %23
  %.0 = phi i32 [ %25, %23 ], [ 0, %26 ], [ -12, %3 ]
  call void @llvm.lifetime.end.p0(i64 8, ptr nonnull %4) #11
  ret i32 %.0
}